target datalayout = "e-m:e-p270:32:32-p271:32:32-p272:64:64-i64:64-i128:128-f80:128-n8:16:32:64-S128"
target triple = "x86_64-pc-linux-gnu"

; Function Attrs: nounwind uwtable
define internal i32 @Abc_TtIsSubsetWithMask(ptr noundef %0, ptr noundef %1, ptr noundef %2, i32 noundef %3) #0 {
  %5 = alloca i32, align 4
  %6 = alloca ptr, align 8
  %7 = alloca ptr, align 8
  %8 = alloca ptr, align 8
  %9 = alloca i32, align 4
  %10 = alloca i32, align 4
  %11 = alloca i32, align 4
  store ptr %0, ptr %6, align 8, !tbaa !8
  store ptr %1, ptr %7, align 8, !tbaa !8
  store ptr %2, ptr %8, align 8, !tbaa !8
  store i32 %3, ptr %9, align 4, !tbaa !10
  call void @llvm.lifetime.start.p0(i64 4, ptr %10) #14
  store i32 0, ptr %10, align 4, !tbaa !10
  br label %12

12:                                               ; preds = %48, %4
  %13 = load i32, ptr %10, align 4, !tbaa !10
  %14 = load i32, ptr %9, align 4, !tbaa !10
  %15 = icmp slt i32 %13, %14
  br i1 %15, label %16, label %51

16:                                               ; preds = %12
  %17 = load ptr, ptr %6, align 8, !tbaa !8
  %18 = load i32, ptr %10, align 4, !tbaa !10
  %19 = sext i32 %18 to i64
  %20 = getelementptr inbounds i64, ptr %17, i64 %19
  %21 = load i64, ptr %20, align 8, !tbaa !37
  %22 = load ptr, ptr %7, align 8, !tbaa !8
  %23 = load i32, ptr %10, align 4, !tbaa !10
  %24 = sext i32 %23 to i64
  %25 = getelementptr inbounds i64, ptr %22, i64 %24
  %26 = load i64, ptr %25, align 8, !tbaa !37
  %27 = and i64 %21, %26
  %28 = load ptr, ptr %8, align 8, !tbaa !8
  %29 = load i32, ptr %10, align 4, !tbaa !10
  %30 = sext i32 %29 to i64
  %31 = getelementptr inbounds i64, ptr %28, i64 %30
  %32 = load i64, ptr %31, align 8, !tbaa !37
  %33 = and i64 %27, %32
  %34 = load ptr, ptr %6, align 8, !tbaa !8
  %35 = load i32, ptr %10, align 4, !tbaa !10
  %36 = sext i32 %35 to i64
  %37 = getelementptr inbounds i64, ptr %34, i64 %36
  %38 = load i64, ptr %37, align 8, !tbaa !37
  %39 = load ptr, ptr %8, align 8, !tbaa !8
  %40 = load i32, ptr %10, align 4, !tbaa !10
  %41 = sext i32 %40 to i64
  %42 = getelementptr inbounds i64, ptr %39, i64 %41
  %43 = load i64, ptr %42, align 8, !tbaa !37
  %44 = and i64 %38, %43
  %45 = icmp ne i64 %33, %44
  br i1 %45, label %46, label %47

46:                                               ; preds = %16
  store i32 0, ptr %5, align 4
  store i32 1, ptr %11, align 4
  br label %52

47:                                               ; preds = %16
  br label %48

48:                                               ; preds = %47
  %49 = load i32, ptr %10, align 4, !tbaa !10
  %50 = add nsw i32 %49, 1
  store i32 %50, ptr %10, align 4, !tbaa !10
  br label %12, !llvm.loop !220

51:                                               ; preds = %12
  store i32 1, ptr %5, align 4
  store i32 1, ptr %11, align 4
  br label %52

52:                                               ; preds = %51, %46
  call void @llvm.lifetime.end.p0(i64 4, ptr %10) #14
  %53 = load i32, ptr %5, align 4
  ret i32 %53
}

; Function Attrs: nounwind uwtable
define internal i32 @Abc_TtIsTopDecomposable(ptr noundef %0, ptr noundef %1, i32 noundef %2, i32 noundef %3) #0 {
  %5 = alloca i32, align 4
  %6 = alloca ptr, align 8
  %7 = alloca ptr, align 8
  %8 = alloca i32, align 4
  %9 = alloca i32, align 4
  store ptr %0, ptr %6, align 8, !tbaa !8
  store ptr %1, ptr %7, align 8, !tbaa !8
  store i32 %2, ptr %8, align 4, !tbaa !10
  store i32 %3, ptr %9, align 4, !tbaa !10
  %10 = load ptr, ptr %6, align 8, !tbaa !8
  %11 = load i32, ptr %9, align 4, !tbaa !10
  %12 = shl i32 %11, 2
  %13 = sext i32 %12 to i64
  %14 = getelementptr inbounds [32 x i64], ptr @s_Truths8, i64 0, i64 %13
  %15 = load ptr, ptr %7, align 8, !tbaa !8
  %16 = load i32, ptr %8, align 4, !tbaa !10
  %17 = call i32 @Abc_TtIsSubsetWithMask(ptr noundef %10, ptr noundef %14, ptr noundef %15, i32 noundef %16)
  %18 = icmp ne i32 %17, 0
  br i1 %18, label %19, label %20

19:                                               ; preds = %4
  store i32 1, ptr %5, align 4
  br label %62

20:                                               ; preds = %4
  %21 = load ptr, ptr %6, align 8, !tbaa !8
  %22 = load i32, ptr %9, align 4, !tbaa !10
  %23 = shl i32 %22, 2
  %24 = sext i32 %23 to i64
  %25 = getelementptr inbounds [32 x i64], ptr @s_Truths8Neg, i64 0, i64 %24
  %26 = load ptr, ptr %7, align 8, !tbaa !8
  %27 = load i32, ptr %8, align 4, !tbaa !10
  %28 = call i32 @Abc_TtIsSubsetWithMask(ptr noundef %21, ptr noundef %25, ptr noundef %26, i32 noundef %27)
  %29 = icmp ne i32 %28, 0
  br i1 %29, label %30, label %31

30:                                               ; preds = %20
  store i32 2, ptr %5, align 4
  br label %62

31:                                               ; preds = %20
  %32 = load i32, ptr %9, align 4, !tbaa !10
  %33 = shl i32 %32, 2
  %34 = sext i32 %33 to i64
  %35 = getelementptr inbounds [32 x i64], ptr @s_Truths8, i64 0, i64 %34
  %36 = load ptr, ptr %6, align 8, !tbaa !8
  %37 = load ptr, ptr %7, align 8, !tbaa !8
  %38 = load i32, ptr %8, align 4, !tbaa !10
  %39 = call i32 @Abc_TtIsSubsetWithMask(ptr noundef %35, ptr noundef %36, ptr noundef %37, i32 noundef %38)
  %40 = icmp ne i32 %39, 0
  br i1 %40, label %41, label %42

41:                                               ; preds = %31
  store i32 3, ptr %5, align 4
  br label %62

42:                                               ; preds = %31
  %43 = load i32, ptr %9, align 4, !tbaa !10
  %44 = shl i32 %43, 2
  %45 = sext i32 %44 to i64
  %46 = getelementptr inbounds [32 x i64], ptr @s_Truths8Neg, i64 0, i64 %45
  %47 = load ptr, ptr %6, align 8, !tbaa !8
  %48 = load ptr, ptr %7, align 8, !tbaa !8
  %49 = load i32, ptr %8, align 4, !tbaa !10
  %50 = call i32 @Abc_TtIsSubsetWithMask(ptr noundef %46, ptr noundef %47, ptr noundef %48, i32 noundef %49)
  %51 = icmp ne i32 %50, 0
  br i1 %51, label %52, label %53

52:                                               ; preds = %42
  store i32 4, ptr %5, align 4
  br label %62

53:                                               ; preds = %42
  %54 = load ptr, ptr %6, align 8, !tbaa !8
  %55 = load ptr, ptr %7, align 8, !tbaa !8
  %56 = load i32, ptr %8, align 4, !tbaa !10
  %57 = load i32, ptr %9, align 4, !tbaa !10
  %58 = call i32 @Abc_TtCofsOppositeWithMask(ptr noundef %54, ptr noundef %55, i32 noundef %56, i32 noundef %57)
  %59 = icmp ne i32 %58, 0
  br i1 %59, label %60, label %61

60:                                               ; preds = %53
  store i32 5, ptr %5, align 4
  br label %62

61:                                               ; preds = %53
  store i32 0, ptr %5, align 4
  br label %62

62:                                               ; preds = %61, %60, %52, %41, %30, %19
  %63 = load i32, ptr %5, align 4
  ret i32 %63
}