; Function Attrs: nofree norecurse nosync nounwind memory(read, inaccessiblemem: none) uwtable
define internal fastcc range(i32 0, 6) i32 @Abc_TtIsTopDecomposable(ptr noundef readonly %0, ptr noundef nonnull readonly captures(none) %1, i32 noundef %2, i32 noundef %3) unnamed_addr #19 {
  %5 = shl i32 %3, 2
  %6 = sext i32 %5 to i64
  %7 = getelementptr inbounds [32 x i64], ptr @s_Truths8, i64 0, i64 %6
  %8 = icmp sgt i32 %2, 0
  br i1 %8, label %.lr.ph.preheader.i, label %Abc_TtIsSubsetWithMask.exit.thread

.lr.ph.preheader.i:                               ; preds = %4
  %wide.trip.count.i = zext nneg i32 %2 to i64
  br label %.lr.ph.i

9:                                                ; preds = %.lr.ph.i
  %indvars.iv.next.i = add nuw nsw i64 %indvars.iv.i, 1
  %exitcond.not.i = icmp eq i64 %indvars.iv.next.i, %wide.trip.count.i
  br i1 %exitcond.not.i, label %Abc_TtIsSubsetWithMask.exit.thread, label %.lr.ph.i, !llvm.loop !217

.lr.ph.i:                                         ; preds = %9, %.lr.ph.preheader.i
  %indvars.iv.i = phi i64 [ 0, %.lr.ph.preheader.i ], [ %indvars.iv.next.i, %9 ]
  %10 = getelementptr inbounds nuw i64, ptr %0, i64 %indvars.iv.i
  %11 = load i64, ptr %10, align 8, !tbaa !3
  %12 = getelementptr inbounds nuw i64, ptr %7, i64 %indvars.iv.i
  %13 = load i64, ptr %12, align 8, !tbaa !3
  %14 = getelementptr inbounds nuw i64, ptr %1, i64 %indvars.iv.i
  %15 = load i64, ptr %14, align 8, !tbaa !3
  %16 = xor i64 %13, -1
  %17 = and i64 %11, %16
  %18 = and i64 %17, %15
  %.not.i = icmp eq i64 %18, 0
  br i1 %.not.i, label %9, label %Abc_TtIsSubsetWithMask.exit

Abc_TtIsSubsetWithMask.exit:                      ; preds = %.lr.ph.i
  %19 = getelementptr inbounds [32 x i64], ptr @s_Truths8Neg, i64 0, i64 %6
  br label %.lr.ph.i27

20:                                               ; preds = %.lr.ph.i27
  %indvars.iv.next.i30 = add nuw nsw i64 %indvars.iv.i28, 1
  %exitcond.not.i31 = icmp eq i64 %indvars.iv.next.i30, %wide.trip.count.i
  br i1 %exitcond.not.i31, label %Abc_TtIsSubsetWithMask.exit.thread, label %.lr.ph.i27, !llvm.loop !217

.lr.ph.i27:                                       ; preds = %20, %Abc_TtIsSubsetWithMask.exit
  %indvars.iv.i28 = phi i64 [ 0, %Abc_TtIsSubsetWithMask.exit ], [ %indvars.iv.next.i30, %20 ]
  %21 = getelementptr inbounds nuw i64, ptr %0, i64 %indvars.iv.i28
  %22 = load i64, ptr %21, align 8, !tbaa !3
  %23 = getelementptr inbounds nuw i64, ptr %19, i64 %indvars.iv.i28
  %24 = load i64, ptr %23, align 8, !tbaa !3
  %25 = getelementptr inbounds nuw i64, ptr %1, i64 %indvars.iv.i28
  %26 = load i64, ptr %25, align 8, !tbaa !3
  %27 = xor i64 %24, -1
  %28 = and i64 %22, %27
  %29 = and i64 %28, %26
  %.not.i29 = icmp eq i64 %29, 0
  br i1 %.not.i29, label %20, label %.lr.ph.i36

30:                                               ; preds = %.lr.ph.i36
  %indvars.iv.next.i39 = add nuw nsw i64 %indvars.iv.i37, 1
  %exitcond.not.i40 = icmp eq i64 %indvars.iv.next.i39, %wide.trip.count.i
  br i1 %exitcond.not.i40, label %Abc_TtIsSubsetWithMask.exit.thread, label %.lr.ph.i36, !llvm.loop !217

.lr.ph.i36:                                       ; preds = %.lr.ph.i27, %30
  %indvars.iv.i37 = phi i64 [ %indvars.iv.next.i39, %30 ], [ 0, %.lr.ph.i27 ]
  %31 = getelementptr inbounds nuw i64, ptr %7, i64 %indvars.iv.i37
  %32 = load i64, ptr %31, align 8, !tbaa !3
  %33 = getelementptr inbounds nuw i64, ptr %0, i64 %indvars.iv.i37
  %34 = load i64, ptr %33, align 8, !tbaa !3
  %35 = getelementptr inbounds nuw i64, ptr %1, i64 %indvars.iv.i37
  %36 = load i64, ptr %35, align 8, !tbaa !3
  %37 = xor i64 %34, -1
  %38 = and i64 %32, %37
  %39 = and i64 %38, %36
  %.not.i38 = icmp eq i64 %39, 0
  br i1 %.not.i38, label %30, label %.lr.ph.i45

40:                                               ; preds = %.lr.ph.i45
  %indvars.iv.next.i48 = add nuw nsw i64 %indvars.iv.i46, 1
  %exitcond.not.i49 = icmp eq i64 %indvars.iv.next.i48, %wide.trip.count.i
  br i1 %exitcond.not.i49, label %Abc_TtIsSubsetWithMask.exit.thread, label %.lr.ph.i45, !llvm.loop !217

.lr.ph.i45:                                       ; preds = %.lr.ph.i36, %40
  %indvars.iv.i46 = phi i64 [ %indvars.iv.next.i48, %40 ], [ 0, %.lr.ph.i36 ]
  %41 = getelementptr inbounds nuw i64, ptr %19, i64 %indvars.iv.i46
  %42 = load i64, ptr %41, align 8, !tbaa !3
  %43 = getelementptr inbounds nuw i64, ptr %0, i64 %indvars.iv.i46
  %44 = load i64, ptr %43, align 8, !tbaa !3
  %45 = getelementptr inbounds nuw i64, ptr %1, i64 %indvars.iv.i46
  %46 = load i64, ptr %45, align 8, !tbaa !3
  %47 = xor i64 %44, -1
  %48 = and i64 %42, %47
  %49 = and i64 %48, %46
  %.not.i47 = icmp eq i64 %49, 0
  br i1 %.not.i47, label %40, label %Abc_TtIsSubsetWithMask.exit50

Abc_TtIsSubsetWithMask.exit50:                    ; preds = %.lr.ph.i45
  %50 = tail call fastcc i32 @Abc_TtCofsOppositeWithMask(ptr noundef nonnull %0, ptr noundef %1, i32 noundef %2, i32 noundef %3)
  %.not23 = icmp eq i32 %50, 0
  %. = select i1 %.not23, i32 0, i32 5
  br label %Abc_TtIsSubsetWithMask.exit.thread

Abc_TtIsSubsetWithMask.exit.thread:               ; preds = %9, %20, %30, %40, %4, %Abc_TtIsSubsetWithMask.exit50
  %.0 = phi i32 [ %., %Abc_TtIsSubsetWithMask.exit50 ], [ 1, %4 ], [ 4, %40 ], [ 3, %30 ], [ 2, %20 ], [ 1, %9 ]
  ret i32 %.0
}